target datalayout = "e-m:e-p270:32:32-p271:32:32-p272:64:64-i64:64-i128:128-f80:128-n8:16:32:64-S128"
target triple = "x86_64-pc-linux-gnu"

%struct.batch_alloc_packet_s = type { ptr, i64, i64, i32 }

; Function Attrs: nounwind uwtable
define internal i32 @experimental_batch_alloc_ctl(ptr noundef %0, ptr noundef %1, i64 noundef %2, ptr noundef %3, ptr noundef %4, ptr noundef %5, i64 noundef %6) #0 {
  %8 = alloca i32, align 4
  %9 = alloca ptr, align 8
  %10 = alloca ptr, align 8
  %11 = alloca i64, align 8
  %12 = alloca ptr, align 8
  %13 = alloca ptr, align 8
  %14 = alloca ptr, align 8
  %15 = alloca i64, align 8
  %16 = alloca i32, align 4
  %17 = alloca %struct.batch_alloc_packet_s, align 8
  %18 = alloca i64, align 8
  %19 = alloca i64, align 8
  %20 = alloca i32, align 4
  store ptr %0, ptr %9, align 8, !tbaa !3
  store ptr %1, ptr %10, align 8, !tbaa !11
  store i64 %2, ptr %11, align 8, !tbaa !13
  store ptr %3, ptr %12, align 8, !tbaa !10
  store ptr %4, ptr %13, align 8, !tbaa !11
  store ptr %5, ptr %14, align 8, !tbaa !10
  store i64 %6, ptr %15, align 8, !tbaa !13
  call void @llvm.lifetime.start.p0(i64 4, ptr %16) #13
  br label %21

21:                                               ; preds = %7
  %22 = load ptr, ptr %12, align 8, !tbaa !10
  %23 = icmp eq ptr %22, null
  br i1 %23, label %31, label %24

24:                                               ; preds = %21
  %25 = load ptr, ptr %13, align 8, !tbaa !11
  %26 = icmp eq ptr %25, null
  br i1 %26, label %31, label %27

27:                                               ; preds = %24
  %28 = load ptr, ptr %13, align 8, !tbaa !11
  %29 = load i64, ptr %28, align 8, !tbaa !13
  %30 = icmp ne i64 %29, 8
  br i1 %30, label %31, label %37

31:                                               ; preds = %27, %24, %21
  %32 = load ptr, ptr %13, align 8, !tbaa !11
  %33 = icmp ne ptr %32, null
  br i1 %33, label %34, label %36

34:                                               ; preds = %31
  %35 = load ptr, ptr %13, align 8, !tbaa !11
  store i64 0, ptr %35, align 8, !tbaa !13
  br label %36

36:                                               ; preds = %34, %31
  store i32 22, ptr %16, align 4, !tbaa !19
  br label %91

37:                                               ; preds = %27
  br label %38

38:                                               ; preds = %37
  br label %39

39:                                               ; preds = %38
  br label %40

40:                                               ; preds = %39
  %41 = load ptr, ptr %14, align 8, !tbaa !10
  %42 = icmp eq ptr %41, null
  br i1 %42, label %46, label %43

43:                                               ; preds = %40
  %44 = load i64, ptr %15, align 8, !tbaa !13
  %45 = icmp ne i64 %44, 32
  br i1 %45, label %46, label %47

46:                                               ; preds = %43, %40
  store i32 22, ptr %16, align 4, !tbaa !19
  br label %91

47:                                               ; preds = %43
  %48 = load ptr, ptr %14, align 8, !tbaa !10
  call void @llvm.memcpy.p0.p0.i64(ptr align 8 %17, ptr align 8 %48, i64 32, i1 false), !tbaa.struct !318
  br label %49

49:                                               ; preds = %47
  br label %50

50:                                               ; preds = %49
  %51 = getelementptr inbounds nuw %struct.batch_alloc_packet_s, ptr %17, i32 0, i32 0
  %52 = load ptr, ptr %51, align 8, !tbaa !319
  %53 = getelementptr inbounds nuw %struct.batch_alloc_packet_s, ptr %17, i32 0, i32 1
  %54 = load i64, ptr %53, align 8, !tbaa !321
  %55 = getelementptr inbounds nuw %struct.batch_alloc_packet_s, ptr %17, i32 0, i32 2
  %56 = load i64, ptr %55, align 8, !tbaa !322
  %57 = getelementptr inbounds nuw %struct.batch_alloc_packet_s, ptr %17, i32 0, i32 3
  %58 = load i32, ptr %57, align 8, !tbaa !323
  %59 = call i64 @duckdb_je_batch_alloc(ptr noundef %52, i64 noundef %54, i64 noundef %56, i32 noundef %58)
  store i64 %59, ptr %18, align 8, !tbaa !13
  br label %60

60:                                               ; preds = %50
  %61 = load ptr, ptr %12, align 8, !tbaa !10
  %62 = icmp ne ptr %61, null
  br i1 %62, label %63, label %88

63:                                               ; preds = %60
  %64 = load ptr, ptr %13, align 8, !tbaa !11
  %65 = icmp ne ptr %64, null
  br i1 %65, label %66, label %88

66:                                               ; preds = %63
  %67 = load ptr, ptr %13, align 8, !tbaa !11
  %68 = load i64, ptr %67, align 8, !tbaa !13
  %69 = icmp ne i64 %68, 8
  br i1 %69, label %70, label %85

70:                                               ; preds = %66
  call void @llvm.lifetime.start.p0(i64 8, ptr %19) #13
  %71 = load ptr, ptr %13, align 8, !tbaa !11
  %72 = load i64, ptr %71, align 8, !tbaa !13
  %73 = icmp ule i64 8, %72
  br i1 %73, label %74, label %75

74:                                               ; preds = %70
  br label %78

75:                                               ; preds = %70
  %76 = load ptr, ptr %13, align 8, !tbaa !11
  %77 = load i64, ptr %76, align 8, !tbaa !13
  br label %78

78:                                               ; preds = %75, %74
  %79 = phi i64 [ 8, %74 ], [ %77, %75 ]
  store i64 %79, ptr %19, align 8, !tbaa !13
  %80 = load ptr, ptr %12, align 8, !tbaa !10
  %81 = load i64, ptr %19, align 8, !tbaa !13
  call void @llvm.memcpy.p0.p0.i64(ptr align 1 %80, ptr align 1 %18, i64 %81, i1 false)
  %82 = load i64, ptr %19, align 8, !tbaa !13
  %83 = load ptr, ptr %13, align 8, !tbaa !11
  store i64 %82, ptr %83, align 8, !tbaa !13
  store i32 22, ptr %16, align 4, !tbaa !19
  store i32 4, ptr %20, align 4
  call void @llvm.lifetime.end.p0(i64 8, ptr %19) #13
  %84 = load i32, ptr %20, align 4
  switch i32 %84, label %93 [
    i32 4, label %91
  ]

85:                                               ; preds = %66
  %86 = load i64, ptr %18, align 8, !tbaa !13
  %87 = load ptr, ptr %12, align 8, !tbaa !10
  store i64 %86, ptr %87, align 8, !tbaa !13
  br label %88

88:                                               ; preds = %85, %63, %60
  br label %89

89:                                               ; preds = %88
  br label %90

90:                                               ; preds = %89
  store i32 0, ptr %16, align 4, !tbaa !19
  br label %91

91:                                               ; preds = %90, %78, %46, %36
  %92 = load i32, ptr %16, align 4, !tbaa !19
  store i32 %92, ptr %8, align 4
  store i32 1, ptr %20, align 4
  br label %93

93:                                               ; preds = %91, %78
  call void @llvm.lifetime.end.p0(i64 4, ptr %16) #13
  %94 = load i32, ptr %8, align 4
  ret i32 %94
}